target datalayout = "e-m:e-p270:32:32-p271:32:32-p272:64:64-i64:64-i128:128-f80:128-n8:16:32:64-S128"
target triple = "x86_64-pc-linux-gnu"

%struct.mbedtls_ecp_group = type { i32, %struct.mbedtls_mpi, %struct.mbedtls_mpi, %struct.mbedtls_mpi, %struct.mbedtls_ecp_point, %struct.mbedtls_mpi, i64, i64, i32, ptr, ptr, ptr, ptr, ptr, i64 }
%struct.mbedtls_ecp_point = type { %struct.mbedtls_mpi, %struct.mbedtls_mpi, %struct.mbedtls_mpi }
%struct.mbedtls_mpi = type { ptr, i16, i16 }

; Function Attrs: nounwind uwtable
define hidden void @mbedtls_ecp_point_init(ptr noundef %0) #0 {
  %2 = alloca ptr, align 8
  store ptr %0, ptr %2, align 8, !tbaa !34
  %3 = load ptr, ptr %2, align 8, !tbaa !34
  %4 = getelementptr inbounds nuw %struct.mbedtls_ecp_point, ptr %3, i32 0, i32 0
  call void @mbedtls_mpi_init(ptr noundef %4)
  %5 = load ptr, ptr %2, align 8, !tbaa !34
  %6 = getelementptr inbounds nuw %struct.mbedtls_ecp_point, ptr %5, i32 0, i32 1
  call void @mbedtls_mpi_init(ptr noundef %6)
  %7 = load ptr, ptr %2, align 8, !tbaa !34
  %8 = getelementptr inbounds nuw %struct.mbedtls_ecp_point, ptr %7, i32 0, i32 2
  call void @mbedtls_mpi_init(ptr noundef %8)
  ret void
}

; Function Attrs: nounwind uwtable
define hidden void @mbedtls_ecp_group_init(ptr noundef %0) #0 {
  %2 = alloca ptr, align 8
  store ptr %0, ptr %2, align 8, !tbaa !25
  %3 = load ptr, ptr %2, align 8, !tbaa !25
  %4 = getelementptr inbounds nuw %struct.mbedtls_ecp_group, ptr %3, i32 0, i32 0
  store i32 0, ptr %4, align 8, !tbaa !35
  %5 = load ptr, ptr %2, align 8, !tbaa !25
  %6 = getelementptr inbounds nuw %struct.mbedtls_ecp_group, ptr %5, i32 0, i32 1
  call void @mbedtls_mpi_init(ptr noundef %6)
  %7 = load ptr, ptr %2, align 8, !tbaa !25
  %8 = getelementptr inbounds nuw %struct.mbedtls_ecp_group, ptr %7, i32 0, i32 2
  call void @mbedtls_mpi_init(ptr noundef %8)
  %9 = load ptr, ptr %2, align 8, !tbaa !25
  %10 = getelementptr inbounds nuw %struct.mbedtls_ecp_group, ptr %9, i32 0, i32 3
  call void @mbedtls_mpi_init(ptr noundef %10)
  %11 = load ptr, ptr %2, align 8, !tbaa !25
  %12 = getelementptr inbounds nuw %struct.mbedtls_ecp_group, ptr %11, i32 0, i32 4
  call void @mbedtls_ecp_point_init(ptr noundef %12)
  %13 = load ptr, ptr %2, align 8, !tbaa !25
  %14 = getelementptr inbounds nuw %struct.mbedtls_ecp_group, ptr %13, i32 0, i32 5
  call void @mbedtls_mpi_init(ptr noundef %14)
  %15 = load ptr, ptr %2, align 8, !tbaa !25
  %16 = getelementptr inbounds nuw %struct.mbedtls_ecp_group, ptr %15, i32 0, i32 6
  store i64 0, ptr %16, align 8, !tbaa !36
  %17 = load ptr, ptr %2, align 8, !tbaa !25
  %18 = getelementptr inbounds nuw %struct.mbedtls_ecp_group, ptr %17, i32 0, i32 7
  store i64 0, ptr %18, align 8, !tbaa !37
  %19 = load ptr, ptr %2, align 8, !tbaa !25
  %20 = getelementptr inbounds nuw %struct.mbedtls_ecp_group, ptr %19, i32 0, i32 8
  store i32 0, ptr %20, align 8, !tbaa !38
  %21 = load ptr, ptr %2, align 8, !tbaa !25
  %22 = getelementptr inbounds nuw %struct.mbedtls_ecp_group, ptr %21, i32 0, i32 9
  store ptr null, ptr %22, align 8, !tbaa !39
  %23 = load ptr, ptr %2, align 8, !tbaa !25
  %24 = getelementptr inbounds nuw %struct.mbedtls_ecp_group, ptr %23, i32 0, i32 10
  store ptr null, ptr %24, align 8, !tbaa !40
  %25 = load ptr, ptr %2, align 8, !tbaa !25
  %26 = getelementptr inbounds nuw %struct.mbedtls_ecp_group, ptr %25, i32 0, i32 11
  store ptr null, ptr %26, align 8, !tbaa !41
  %27 = load ptr, ptr %2, align 8, !tbaa !25
  %28 = getelementptr inbounds nuw %struct.mbedtls_ecp_group, ptr %27, i32 0, i32 12
  store ptr null, ptr %28, align 8, !tbaa !42
  %29 = load ptr, ptr %2, align 8, !tbaa !25
  %30 = getelementptr inbounds nuw %struct.mbedtls_ecp_group, ptr %29, i32 0, i32 13
  store ptr null, ptr %30, align 8, !tbaa !43
  %31 = load ptr, ptr %2, align 8, !tbaa !25
  %32 = getelementptr inbounds nuw %struct.mbedtls_ecp_group, ptr %31, i32 0, i32 14
  store i64 0, ptr %32, align 8, !tbaa !44
  ret void
}